target datalayout = "e-m:e-p270:32:32-p271:32:32-p272:64:64-i64:64-i128:128-f80:128-n8:16:32:64-S128"
target triple = "x86_64-pc-linux-gnu"

; Function Attrs: nounwind sspstrong uwtable
define internal ptr @find_dirsep(ptr noundef %0, ptr noundef %1, i32 noundef %2, ptr noundef %3) #0 {
  %5 = alloca ptr, align 8
  %6 = alloca ptr, align 8
  %7 = alloca ptr, align 8
  %8 = alloca i32, align 4
  %9 = alloca ptr, align 8
  %10 = alloca i32, align 4
  %11 = alloca i8, align 1
  %12 = alloca i32, align 4
  %13 = alloca i32, align 4
  store ptr %0, ptr %6, align 8, !tbaa !11
  store ptr %1, ptr %7, align 8, !tbaa !11
  store i32 %2, ptr %8, align 4, !tbaa !21
  store ptr %3, ptr %9, align 8, !tbaa !19
  call void @llvm.lifetime.start.p0(i64 4, ptr %10) #26
  %14 = load i32, ptr %8, align 4, !tbaa !21
  %15 = and i32 %14, 1
  %16 = icmp ne i32 %15, 0
  %17 = xor i1 %16, true
  %18 = zext i1 %17 to i32
  store i32 %18, ptr %10, align 4, !tbaa !21
  call void @llvm.lifetime.start.p0(i64 1, ptr %11) #26
  call void @llvm.lifetime.start.p0(i64 4, ptr %12) #26
  store i32 0, ptr %12, align 4, !tbaa !21
  br label %19

19:                                               ; preds = %51, %50, %38, %31, %30, %29, %28, %4
  %20 = load ptr, ptr %6, align 8, !tbaa !11
  %21 = getelementptr i8, ptr %20, i32 1
  store ptr %21, ptr %6, align 8, !tbaa !11
  %22 = load i8, ptr %20, align 1, !tbaa !26
  store i8 %22, ptr %11, align 1, !tbaa !26
  %23 = sext i8 %22 to i32
  %24 = icmp ne i32 %23, 0
  br i1 %24, label %25, label %61

25:                                               ; preds = %19
  %26 = load i8, ptr %11, align 1, !tbaa !26
  %27 = sext i8 %26 to i32
  switch i32 %27, label %51 [
    i32 91, label %28
    i32 93, label %29
    i32 123, label %30
    i32 125, label %31
    i32 47, label %32
    i32 92, label %39
  ]

28:                                               ; preds = %25
  store i32 1, ptr %12, align 4, !tbaa !21
  br label %19, !llvm.loop !125

29:                                               ; preds = %25
  store i32 0, ptr %12, align 4, !tbaa !21
  br label %19, !llvm.loop !125

30:                                               ; preds = %25
  store i32 1, ptr %12, align 4, !tbaa !21
  br label %19, !llvm.loop !125

31:                                               ; preds = %25
  store i32 0, ptr %12, align 4, !tbaa !21
  br label %19, !llvm.loop !125

32:                                               ; preds = %25
  %33 = load i32, ptr %12, align 4, !tbaa !21
  %34 = icmp ne i32 %33, 0
  br i1 %34, label %38, label %35

35:                                               ; preds = %32
  %36 = load ptr, ptr %6, align 8, !tbaa !11
  %37 = getelementptr i8, ptr %36, i64 -1
  store ptr %37, ptr %5, align 8
  store i32 1, ptr %13, align 4
  br label %64

38:                                               ; preds = %32
  br label %19, !llvm.loop !125

39:                                               ; preds = %25
  %40 = load i32, ptr %10, align 4, !tbaa !21
  %41 = icmp ne i32 %40, 0
  br i1 %41, label %42, label %50

42:                                               ; preds = %39
  %43 = load ptr, ptr %6, align 8, !tbaa !11
  %44 = getelementptr i8, ptr %43, i32 1
  store ptr %44, ptr %6, align 8, !tbaa !11
  %45 = load i8, ptr %43, align 1, !tbaa !26
  store i8 %45, ptr %11, align 1, !tbaa !26
  %46 = icmp ne i8 %45, 0
  br i1 %46, label %50, label %47

47:                                               ; preds = %42
  %48 = load ptr, ptr %6, align 8, !tbaa !11
  %49 = getelementptr i8, ptr %48, i64 -1
  store ptr %49, ptr %5, align 8
  store i32 1, ptr %13, align 4
  br label %64

50:                                               ; preds = %42, %39
  br label %19, !llvm.loop !125

51:                                               ; preds = %25
  %52 = load ptr, ptr %6, align 8, !tbaa !11
  %53 = getelementptr i8, ptr %52, i64 -1
  %54 = load ptr, ptr %6, align 8, !tbaa !11
  %55 = getelementptr i8, ptr %54, i64 -1
  %56 = load ptr, ptr %7, align 8, !tbaa !11
  %57 = load ptr, ptr %9, align 8, !tbaa !19
  %58 = call i32 @rb_enc_mbclen(ptr noundef %55, ptr noundef %56, ptr noundef %57)
  %59 = sext i32 %58 to i64
  %60 = getelementptr i8, ptr %53, i64 %59
  store ptr %60, ptr %6, align 8, !tbaa !11
  br label %19, !llvm.loop !125

61:                                               ; preds = %19
  %62 = load ptr, ptr %6, align 8, !tbaa !11
  %63 = getelementptr i8, ptr %62, i64 -1
  store ptr %63, ptr %5, align 8
  store i32 1, ptr %13, align 4
  br label %64

64:                                               ; preds = %61, %47, %35
  call void @llvm.lifetime.end.p0(i64 4, ptr %12) #26
  call void @llvm.lifetime.end.p0(i64 1, ptr %11) #26
  call void @llvm.lifetime.end.p0(i64 4, ptr %10) #26
  %65 = load ptr, ptr %5, align 8
  ret ptr %65
}