; Function Attrs: nounwind sspstrong uwtable
define internal fastcc noundef ptr @find_dirsep(ptr noundef %0, ptr noundef %1, i32 noundef %2, ptr noundef %3) unnamed_addr #0 {
  %5 = and i32 %2, 1
  %.not = icmp eq i32 %5, 0
  br i1 %.not, label %.outer.us, label %.outer

.outer.us:                                        ; preds = %4, %.outer.backedge.us
  %.014.ph.us = phi ptr [ %6, %.outer.backedge.us ], [ %0, %4 ]
  %.0.ph.us = phi i32 [ %.0.ph.be.us, %.outer.backedge.us ], [ 0, %4 ]
  br label %.backedge.us.us

.outer.backedge.us:                               ; preds = %.backedge.us.us, %.backedge.us.us, %.split34.us.us, %.split.us.us
  %.0.ph.be.us = phi i32 [ 1, %.split34.us.us ], [ 0, %.split.us.us ], [ 1, %.backedge.us.us ], [ 1, %.backedge.us.us ]
  br label %.outer.us, !llvm.loop !175

.backedge.us.us:                                  ; preds = %.backedge.us.us.backedge, %.outer.us
  %.014.us.us = phi ptr [ %.014.ph.us, %.outer.us ], [ %.014.us.us.be, %.backedge.us.us.backedge ]
  %6 = getelementptr i8, ptr %.014.us.us, i64 1
  %7 = load i8, ptr %.014.us.us, align 1, !tbaa !19
  switch i8 %7, label %11 [
    i8 0, label %.loopexit
    i8 91, label %.outer.backedge.us
    i8 93, label %.split.us.us
    i8 123, label %.outer.backedge.us
    i8 125, label %.split.us.us
    i8 47, label %.split34.us.us
    i8 92, label %8
  ], !llvm.loop !175

8:                                                ; preds = %.backedge.us.us
  %9 = getelementptr i8, ptr %.014.us.us, i64 2
  %10 = load i8, ptr %6, align 1, !tbaa !19
  %.not17.us.us = icmp eq i8 %10, 0
  br i1 %.not17.us.us, label %.loopexit, label %.backedge.us.us.backedge

.backedge.us.us.backedge:                         ; preds = %8, %11
  %.014.us.us.be = phi ptr [ %14, %11 ], [ %9, %8 ]
  br label %.backedge.us.us, !llvm.loop !175

11:                                               ; preds = %.backedge.us.us
  %12 = tail call i32 @rb_enc_mbclen(ptr noundef nonnull %.014.us.us, ptr noundef %1, ptr noundef %3) #22
  %13 = sext i32 %12 to i64
  %14 = getelementptr i8, ptr %.014.us.us, i64 %13
  br label %.backedge.us.us.backedge

.split.us.us:                                     ; preds = %.backedge.us.us, %.backedge.us.us
  br label %.outer.backedge.us

.split34.us.us:                                   ; preds = %.backedge.us.us
  %.not18.us = icmp eq i32 %.0.ph.us, 0
  br i1 %.not18.us, label %.loopexit, label %.outer.backedge.us

.outer:                                           ; preds = %4, %.outer.backedge
  %.014.ph = phi ptr [ %16, %.outer.backedge ], [ %0, %4 ]
  %.0.ph = phi i32 [ %.0.ph.be, %.outer.backedge ], [ 0, %4 ]
  br label %15

15:                                               ; preds = %.backedge, %.outer
  %.014 = phi ptr [ %.014.ph, %.outer ], [ %.014.be, %.backedge ]
  %16 = getelementptr i8, ptr %.014, i64 1
  %17 = load i8, ptr %.014, align 1, !tbaa !19
  switch i8 %17, label %18 [
    i8 0, label %.loopexit
    i8 91, label %.outer.backedge
    i8 93, label %.outer.backedge.loopexit98
    i8 123, label %.outer.backedge
    i8 125, label %.outer.backedge.loopexit98
    i8 47, label %.split34
    i8 92, label %.backedge
  ], !llvm.loop !175

.split34:                                         ; preds = %15
  %.not18 = icmp eq i32 %.0.ph, 0
  br i1 %.not18, label %.loopexit, label %.outer.backedge

.outer.backedge.loopexit98:                       ; preds = %15, %15
  br label %.outer.backedge

.outer.backedge:                                  ; preds = %15, %15, %.outer.backedge.loopexit98, %.split34
  %.0.ph.be = phi i32 [ 1, %.split34 ], [ 0, %.outer.backedge.loopexit98 ], [ 1, %15 ], [ 1, %15 ]
  br label %.outer, !llvm.loop !175

.backedge:                                        ; preds = %15, %18
  %.014.be = phi ptr [ %21, %18 ], [ %16, %15 ]
  br label %15, !llvm.loop !175

18:                                               ; preds = %15
  %19 = tail call i32 @rb_enc_mbclen(ptr noundef nonnull %.014, ptr noundef %1, ptr noundef %3) #22
  %20 = sext i32 %19 to i64
  %21 = getelementptr i8, ptr %.014, i64 %20
  br label %.backedge

.loopexit:                                        ; preds = %.split34, %15, %.split34.us.us, %.backedge.us.us, %8
  %.013 = phi ptr [ %6, %8 ], [ %.014.us.us, %.backedge.us.us ], [ %.014.us.us, %.split34.us.us ], [ %.014, %15 ], [ %.014, %.split34 ]
  ret ptr %.013
}